TN:
SF:/workspace/include/DataSink.h
FNL:0,8,8
FNA:0,0,_ZN9CDataSinkD0Ev
FNA:0,25,_ZN9CDataSinkD2Ev
FNF:1
FNH:1
DA:8,25
LF:1
LH:1
end_of_record
TN:
SF:/workspace/include/DataSource.h
FNL:0,8,8
FNA:0,0,_ZN11CDataSourceD0Ev
FNA:0,54,_ZN11CDataSourceD2Ev
FNF:1
FNH:1
DA:8,54
LF:1
LH:1
end_of_record
TN:
SF:/workspace/include/XMLEntity.h
FNL:0,35,47
FNA:0,0,_ZN10SXMLEntity12SetAttributeERKNSt7__cxx1112basic_stringIcSt11char_traitsIcESaIcEEES7_
FNF:1
FNH:0
DA:35,0
DA:36,0
DA:37,0
DA:39,0
DA:40,0
DA:41,0
DA:42,0
DA:45,0
DA:46,0
LF:9
LH:0
end_of_record
TN:
SF:/workspace/src/SVGWriter.cpp
FNL:0,110,156
FNA:0,2,_ZN10CSVGWriter15SImplementation10SimplePathESt6vectorI9SSVGPointSaIS2_EERKS1_ISt4pairINSt7__cxx1112basic_stringIcSt11char_traitsIcESaIcEEESB_ESaISC_EE
FNL:1,158,167
FNA:1,2,_ZN10CSVGWriter15SImplementation10GroupBeginERKSt6vectorISt4pairINSt7__cxx1112basic_stringIcSt11char_traitsIcESaIcEEES8_ESaIS9_EE
FNL:2,169,175
FNA:2,2,_ZN10CSVGWriter15SImplementation8GroupEndEv
FNL:3,179,181
FNA:3,14,_ZN10CSVGWriterC2ESt10shared_ptrI9CDataSinkEii
FNL:4,183,183
FNA:4,14,_ZN10CSVGWriterD2Ev
FNL:5,185,187
FNA:5,6,_ZN10CSVGWriter6CircleERK9SSVGPointdRKSt6vectorISt4pairINSt7__cxx1112basic_stringIcSt11char_traitsIcESaIcEEESA_ESaISB_EE
FNL:6,189,191
FNA:6,2,_ZN10CSVGWriter8RectangeERK9SSVGPointRK8SSVGSizeRKSt6vectorISt4pairINSt7__cxx1112basic_stringIcSt11char_traitsIcESaIcEEESD_ESaISE_EE
FNL:7,193,195
FNA:7,2,_ZN10CSVGWriter4LineERK9SSVGPointS2_RKSt6vectorISt4pairINSt7__cxx1112basic_stringIcSt11char_traitsIcESaIcEEESA_ESaISB_EE
FNL:8,197,199
FNA:8,2,_ZN10CSVGWriter10SimplePathESt6vectorI9SSVGPointSaIS1_EERKS0_ISt4pairINSt7__cxx1112basic_stringIcSt11char_traitsIcESaIcEEESA_ESaISB_EE
FNL:9,201,203
FNA:9,2,_ZN10CSVGWriter10GroupBeginERKSt6vectorISt4pairINSt7__cxx1112basic_stringIcSt11char_traitsIcESaIcEEES7_ESaIS8_EE
FNL:10,205,207
FNA:10,2,_ZN10CSVGWriter8GroupEndEv
FNL:11,21,31
FNA:11,50,_ZN10CSVGWriter15SImplementation13WriteFunctionEPvPKc
FNL:12,33,36
FNA:12,12,_ZN10CSVGWriter15SImplementation11CleanupFuncEPv
FNL:13,39,42
FNA:13,14,_ZN10CSVGWriter15SImplementationC2ESt10shared_ptrI9CDataSinkEii
FNL:14,44,46
FNA:14,14,_ZN10CSVGWriter15SImplementationD2Ev
FNL:15,48,65
FNA:15,14,_ZN10CSVGWriter15SImplementation17CreateStyleStringERKSt6vectorISt4pairINSt7__cxx1112basic_stringIcSt11char_traitsIcESaIcEEES8_ESaIS9_EE
FNL:16,68,76
FNA:16,6,_ZN10CSVGWriter15SImplementation6CircleERK9SSVGPointdRKSt6vectorISt4pairINSt7__cxx1112basic_stringIcSt11char_traitsIcESaIcEEESB_ESaISC_EE
FNL:17,78,94
FNA:17,2,_ZN10CSVGWriter15SImplementation8RectangeERK9SSVGPointRK8SSVGSizeRKSt6vectorISt4pairINSt7__cxx1112basic_stringIcSt11char_traitsIcESaIcEEESE_ESaISF_EE
FNL:18,96,108
FNA:18,2,_ZN10CSVGWriter15SImplementation4LineERK9SSVGPointS3_RKSt6vectorISt4pairINSt7__cxx1112basic_stringIcSt11char_traitsIcESaIcEEESB_ESaISC_EE
FNF:19
FNH:19
DA:21,50
DA:22,50
DA:24,2158
DA:25,2110
DA:26,2
DA:28,2108
DA:30,48
DA:33,12
DA:35,12
DA:39,14
DA:40,14
DA:41,14
DA:42,14
DA:44,14
DA:45,14
DA:46,14
DA:48,14
DA:49,14
DA:51,30
DA:53,16
DA:54,16
DA:55,16
DA:57,16
DA:58,4
DA:64,14
DA:65,0
DA:68,6
DA:70,6
DA:71,6
DA:73,6
DA:75,6
DA:76,6
DA:78,2
DA:81,2
DA:82,2
DA:85,2
DA:88,2
DA:91,2
DA:94,2
DA:96,2
DA:98,2
DA:99,2
DA:101,2
DA:103,2
DA:105,2
DA:108,2
DA:110,2
DA:112,2
DA:113,0
DA:117,2
DA:122,2
DA:123,2
DA:126,6
DA:127,4
DA:128,4
DA:129,4
DA:132,2
DA:136,2
DA:137,2
DA:138,2
DA:140,2
DA:141,2
DA:142,2
DA:143,2
DA:146,2
DA:148,204
DA:149,202
DA:150,0
DA:154,2
DA:156,2
DA:158,2
DA:160,2
DA:162,2
DA:164,2
DA:167,2
DA:169,2
DA:171,2
DA:172,2
DA:179,14
DA:180,14
DA:181,14
DA:183,14
DA:185,6
DA:186,6
DA:189,2
DA:190,2
DA:193,2
DA:194,2
DA:197,2
DA:198,2
DA:201,2
DA:202,2
DA:205,2
DA:206,2
LF:94
LH:91
end_of_record
TN:
SF:/workspace/src/StringDataSink.cpp
FNL:0,12,15
FNA:0,6,_ZN15CStringDataSink5WriteERKSt6vectorIcSaIcEE
FNL:1,3,5
FNA:1,92,_ZNK15CStringDataSink6StringB5cxx11Ev
FNL:2,7,10
FNA:2,9532,_ZN15CStringDataSink3PutERKc
FNF:3
FNH:3
DA:3,92
DA:4,92
DA:7,9532
DA:8,9532
DA:9,9532
DA:12,6
DA:13,6
DA:14,6
LF:8
LH:8
end_of_record
TN:
SF:/workspace/src/StringDataSource.cpp
FNL:0,11,18
FNA:0,6252,_ZN17CStringDataSource3GetERc
FNL:1,20,26
FNA:1,33,_ZN17CStringDataSource4PeekERc
FNL:2,28,40
FNA:2,36,_ZN17CStringDataSource4ReadERSt6vectorIcSaIcEEm
FNL:3,3,5
FNA:3,54,_ZN17CStringDataSourceC2ERKNSt7__cxx1112basic_stringIcSt11char_traitsIcESaIcEEE
FNL:4,7,9
FNA:4,60,_ZNK17CStringDataSource3EndEv
FNF:5
FNH:5
DA:3,54
DA:5,54
DA:7,60
DA:8,60
DA:11,6252
DA:12,6252
DA:13,6222
DA:14,6222
DA:15,6222
DA:17,30
DA:20,33
DA:21,33
DA:22,27
DA:23,27
DA:25,6
DA:28,36
DA:29,36
DA:30,6252
DA:32,6243
DA:33,6216
DA:36,27
DA:39,36
LF:22
LH:22
end_of_record
TN:
SF:/workspace/src/XMLReader.cpp
FNL:0,118,126
FNA:0,21,_ZN10CXMLReader15SImplementationD2Ev
FNL:1,128,133
FNA:1,21,_ZNK10CXMLReader15SImplementation3EndEv
FNL:2,135,174
FNA:2,27,_ZN10CXMLReader15SImplementation11SendToExpatEv
FNL:3,16,51
FNA:3,21,_ZN10CXMLReader15SImplementation17ExpatStartElementEPvPKcPS3_
FNL:4,176,234
FNA:4,54,_ZN10CXMLReader15SImplementation10ReadEntityER10SXMLEntityb
FNL:5,239,244
FNA:5,21,_ZN10CXMLReaderC2ESt10shared_ptrI11CDataSourceE
FNL:6,246,246
FNA:6,21,_ZN10CXMLReaderD2Ev
FNL:7,254,259
FNA:7,21,_ZNK10CXMLReader3EndEv
FNL:8,267,271
FNA:8,54,_ZN10CXMLReader10ReadEntityER10SXMLEntityb
FNL:9,53,66
FNA:9,18,_ZN10CXMLReader15SImplementation15ExpatEndElementEPvPKc
FNL:10,68,91
FNA:10,30,_ZN10CXMLReader15SImplementation18ExpatCharacterDataEPvPKci
FNL:11,93,116
FNA:11,21,_ZN10CXMLReader15SImplementationC2ESt10shared_ptrI11CDataSourceE
FNF:12
FNH:12
DA:16,21
DA:25,21
DA:27,21
DA:30,21
DA:32,42
DA:35,21
DA:38,21
DA:39,0
DA:40,0
DA:42,0
DA:43,0
DA:47,21
DA:51,21
DA:53,18
DA:56,18
DA:58,18
DA:60,18
DA:62,36
DA:64,18
DA:66,18
DA:68,30
DA:75,30
DA:78,30
DA:79,0
DA:84,30
DA:85,30
DA:86,30
DA:89,30
DA:91,30
DA:93,21
DA:94,21
DA:99,21
DA:102,21
DA:105,21
DA:112,21
DA:116,21
DA:118,21
DA:121,21
DA:122,21
DA:123,21
DA:126,21
DA:128,21
DA:131,21
DA:135,27
DA:137,27
DA:138,3
DA:142,27
DA:144,0
DA:145,0
DA:147,0
DA:149,0
DA:153,27
DA:154,27
DA:155,27
DA:157,0
DA:158,0
DA:160,0
DA:162,0
DA:165,27
DA:166,27
DA:167,3
DA:168,3
DA:171,24
DA:172,18
DA:174,27
DA:176,54
DA:180,75
DA:181,21
DA:184,54
DA:185,3
DA:188,51
DA:190,0
DA:191,0
DA:193,0
DA:194,0
DA:197,0
DA:198,0
DA:200,0
DA:205,51
DA:206,12
DA:207,12
DA:211,36
DA:212,6
DA:214,30
DA:215,0
DA:218,30
DA:219,12
DA:221,18
DA:222,18
DA:224,12
DA:225,12
DA:227,12
DA:230,39
DA:231,39
DA:232,39
DA:239,21
DA:240,21
DA:244,21
DA:246,21
DA:254,21
DA:257,21
DA:267,54
DA:270,54
LF:103
LH:82
end_of_record
TN:
SF:/workspace/src/svg.c
FNL:0,107,147
FNA:0,15,svg_circle
FNL:1,150,194
FNA:1,15,svg_rect
FNL:2,196,235
FNA:2,15,svg_line
FNL:3,237,270
FNA:3,6,svg_group_begin
FNL:4,27,70
FNA:4,60,svg_create
FNL:5,272,291
FNA:5,9,svg_group_end
FNL:6,72,105
FNA:6,42,svg_destroy
FNF:7
FNH:7
DA:27,60
DA:33,60
DA:34,6
DA:37,54
DA:38,12
DA:41,42
DA:42,42
DA:43,0
DA:46,42
DA:47,42
DA:48,42
DA:49,42
DA:50,42
DA:51,42
DA:53,42
DA:54,42
DA:55,3
DA:56,3
DA:60,39
DA:62,39
DA:63,39
DA:64,0
DA:65,0
DA:69,39
DA:72,42
DA:75,42
DA:76,3
DA:79,39
DA:80,0
DA:81,0
DA:82,0
DA:83,0
DA:84,0
DA:86,0
DA:89,39
DA:90,39
DA:91,3
DA:92,3
DA:93,3
DA:96,36
DA:97,36
DA:98,3
DA:99,3
DA:102,33
DA:103,33
DA:107,15
DA:122,15
DA:123,6
DA:125,9
DA:126,0
DA:131,9
DA:132,6
DA:134,6
DA:136,3
DA:138,3
DA:141,9
DA:142,9
DA:143,3
DA:145,6
DA:150,15
DA:166,15
DA:167,9
DA:169,6
DA:170,0
DA:175,6
DA:176,3
DA:178,3
DA:180,3
DA:182,3
DA:185,6
DA:186,6
DA:187,0
DA:189,6
DA:196,15
DA:213,15
DA:214,9
DA:219,6
DA:220,3
DA:222,3
DA:224,3
DA:226,3
DA:229,6
DA:230,6
DA:231,0
DA:233,6
DA:237,6
DA:250,6
DA:251,3
DA:255,3
DA:256,3
DA:258,0
DA:261,3
DA:262,3
DA:263,0
DA:266,3
DA:267,3
DA:272,9
DA:276,9
DA:277,3
DA:279,6
DA:280,3
DA:283,3
DA:284,3
DA:285,0
DA:288,3
DA:289,3
LF:106
LH:90
end_of_record
